; ModuleID = '20/286.c'
source_filename = "20/286.c"
target datalayout = "e-m:e-p270:32:32-p271:32:32-p272:64:64-i64:64-f80:128-n8:16:32:64-S128"
target triple = "x86_64-pc-linux-gnu"

@.str = private unnamed_addr constant [6 x i8] c"%s %s\00", align 1
@.str.1 = private unnamed_addr constant [3 x i8] c"%c\00", align 1
@.str.2 = private unnamed_addr constant [3 x i8] c"%s\00", align 1
@.str.3 = private unnamed_addr constant [2 x i8] c"\0A\00", align 1

; Function Attrs: noinline nounwind uwtable
define dso_local void @main() #0 {
  %1 = alloca [11 x i8], align 1
  %2 = alloca [3 x i8], align 1
  %3 = alloca i8*, align 8
  %4 = alloca i8*, align 8
  br label %5

5:                                                ; preds = %64, %0
  %6 = getelementptr inbounds [11 x i8], [11 x i8]* %1, i64 0, i64 0
  %7 = getelementptr inbounds [3 x i8], [3 x i8]* %2, i64 0, i64 0
  %8 = call i32 (i8*, ...) @__isoc99_scanf(i8* getelementptr inbounds ([6 x i8], [6 x i8]* @.str, i64 0, i64 0), i8* %6, i8* %7)
  %9 = icmp ne i32 %8, -1
  br i1 %9, label %10, label %66

10:                                               ; preds = %5
  %11 = getelementptr inbounds [11 x i8], [11 x i8]* %1, i64 0, i64 0
  store i8* %11, i8** %3, align 8
  %12 = load i8*, i8** %3, align 8
  store i8* %12, i8** %4, align 8
  br label %13

13:                                               ; preds = %29, %10
  %14 = load i8*, i8** %3, align 8
  %15 = load i8, i8* %14, align 1
  %16 = sext i8 %15 to i32
  %17 = icmp ne i32 %16, 0
  br i1 %17, label %18, label %32

18:                                               ; preds = %13
  %19 = load i8*, i8** %3, align 8
  %20 = load i8, i8* %19, align 1
  %21 = sext i8 %20 to i32
  %22 = load i8*, i8** %4, align 8
  %23 = load i8, i8* %22, align 1
  %24 = sext i8 %23 to i32
  %25 = icmp sgt i32 %21, %24
  br i1 %25, label %26, label %28

26:                                               ; preds = %18
  %27 = load i8*, i8** %3, align 8
  store i8* %27, i8** %4, align 8
  br label %28

28:                                               ; preds = %26, %18
  br label %29

29:                                               ; preds = %28
  %30 = load i8*, i8** %3, align 8
  %31 = getelementptr inbounds i8, i8* %30, i32 1
  store i8* %31, i8** %3, align 8
  br label %13

32:                                               ; preds = %13
  %33 = getelementptr inbounds [11 x i8], [11 x i8]* %1, i64 0, i64 0
  store i8* %33, i8** %3, align 8
  br label %34

34:                                               ; preds = %43, %32
  %35 = load i8*, i8** %3, align 8
  %36 = load i8*, i8** %4, align 8
  %37 = icmp ule i8* %35, %36
  br i1 %37, label %38, label %46

38:                                               ; preds = %34
  %39 = load i8*, i8** %3, align 8
  %40 = load i8, i8* %39, align 1
  %41 = sext i8 %40 to i32
  %42 = call i32 (i8*, ...) @printf(i8* getelementptr inbounds ([3 x i8], [3 x i8]* @.str.1, i64 0, i64 0), i32 %41)
  br label %43

43:                                               ; preds = %38
  %44 = load i8*, i8** %3, align 8
  %45 = getelementptr inbounds i8, i8* %44, i32 1
  store i8* %45, i8** %3, align 8
  br label %34

46:                                               ; preds = %34
  %47 = getelementptr inbounds [3 x i8], [3 x i8]* %2, i64 0, i64 0
  %48 = call i32 (i8*, ...) @printf(i8* getelementptr inbounds ([3 x i8], [3 x i8]* @.str.2, i64 0, i64 0), i8* %47)
  %49 = load i8*, i8** %4, align 8
  %50 = getelementptr inbounds i8, i8* %49, i64 1
  store i8* %50, i8** %3, align 8
  br label %51

51:                                               ; preds = %61, %46
  %52 = load i8*, i8** %3, align 8
  %53 = load i8, i8* %52, align 1
  %54 = sext i8 %53 to i32
  %55 = icmp ne i32 %54, 0
  br i1 %55, label %56, label %64

56:                                               ; preds = %51
  %57 = load i8*, i8** %3, align 8
  %58 = load i8, i8* %57, align 1
  %59 = sext i8 %58 to i32
  %60 = call i32 (i8*, ...) @printf(i8* getelementptr inbounds ([3 x i8], [3 x i8]* @.str.1, i64 0, i64 0), i32 %59)
  br label %61

61:                                               ; preds = %56
  %62 = load i8*, i8** %3, align 8
  %63 = getelementptr inbounds i8, i8* %62, i32 1
  store i8* %63, i8** %3, align 8
  br label %51

64:                                               ; preds = %51
  %65 = call i32 (i8*, ...) @printf(i8* getelementptr inbounds ([2 x i8], [2 x i8]* @.str.3, i64 0, i64 0))
  br label %5

66:                                               ; preds = %5
  ret void
}

declare dso_local i32 @__isoc99_scanf(i8*, ...) #1

declare dso_local i32 @printf(i8*, ...) #1


!llvm.module.flags = !{!0}
!llvm.ident = !{!1}

!0 = !{i32 1, !"wchar_size", i32 4}
!1 = !{!"clang version 10.0.0-4ubuntu1 "}
