; ModuleID = 'source-C-CXX/19/286.c'
source_filename = "source-C-CXX/19/286.c"
target datalayout = "e-m:e-p270:32:32-p271:32:32-p272:64:64-i64:64-f80:128-n8:16:32:64-S128"
target triple = "x86_64-pc-linux-gnu"

@.str = private unnamed_addr constant [6 x i8] c"%s %s\00", align 1
@.str.2 = private unnamed_addr constant [3 x i8] c"%s\00", align 1

; Function Attrs: nofree nounwind sspstrong uwtable
define dso_local void @main() local_unnamed_addr #0 {
  %1 = alloca [11 x i8], align 1
  %2 = alloca [3 x i8], align 1
  %3 = getelementptr inbounds [11 x i8], [11 x i8]* %1, i64 0, i64 0
  call void @llvm.lifetime.start.p0i8(i64 11, i8* nonnull %3) #4
  %4 = getelementptr inbounds [3 x i8], [3 x i8]* %2, i64 0, i64 0
  call void @llvm.lifetime.start.p0i8(i64 3, i8* nonnull %4) #4
  %5 = call i32 (i8*, ...) @__isoc99_scanf(i8* getelementptr inbounds ([6 x i8], [6 x i8]* @.str, i64 0, i64 0), i8* nonnull %3, i8* nonnull %4)
  %6 = icmp eq i32 %5, -1
  br i1 %6, label %64, label %7

7:                                                ; preds = %0
  %8 = ptrtoint [11 x i8]* %1 to i64
  %9 = sub i64 1, %8
  %10 = getelementptr [11 x i8], [11 x i8]* %1, i64 0, i64 %9
  %11 = getelementptr inbounds [11 x i8], [11 x i8]* %1, i64 0, i64 1
  %12 = getelementptr inbounds [11 x i8], [11 x i8]* %1, i64 0, i64 1
  br label %13

13:                                               ; preds = %7, %60
  %14 = load i8, i8* %3, align 1, !tbaa !5
  %15 = icmp eq i8 %14, 0
  br i1 %15, label %22, label %16

16:                                               ; preds = %13
  %17 = load i8, i8* %11, align 1, !tbaa !5
  %18 = icmp eq i8 %17, 0
  br i1 %18, label %19, label %29, !llvm.loop !8

19:                                               ; preds = %29, %16
  %20 = phi i8* [ %3, %16 ], [ %35, %29 ]
  %21 = icmp ugt i8* %3, %20
  br i1 %21, label %46, label %22

22:                                               ; preds = %13, %19
  %23 = phi i8* [ %20, %19 ], [ %3, %13 ]
  %24 = ptrtoint i8* %23 to i64
  %25 = getelementptr i8, i8* %10, i64 %24
  %26 = sext i8 %14 to i32
  %27 = call i32 @putchar(i32 %26)
  %28 = icmp eq i8* %12, %25
  br i1 %28, label %46, label %39, !llvm.loop !10

29:                                               ; preds = %16, %29
  %30 = phi i8 [ %37, %29 ], [ %17, %16 ]
  %31 = phi i8* [ %36, %29 ], [ %11, %16 ]
  %32 = phi i8* [ %35, %29 ], [ %3, %16 ]
  %33 = load i8, i8* %32, align 1, !tbaa !5
  %34 = icmp sgt i8 %30, %33
  %35 = select i1 %34, i8* %31, i8* %32
  %36 = getelementptr inbounds i8, i8* %31, i64 1
  %37 = load i8, i8* %36, align 1, !tbaa !5
  %38 = icmp eq i8 %37, 0
  br i1 %38, label %19, label %29, !llvm.loop !8

39:                                               ; preds = %22, %39
  %40 = phi i8* [ %44, %39 ], [ %12, %22 ]
  %41 = load i8, i8* %40, align 1, !tbaa !5
  %42 = sext i8 %41 to i32
  %43 = call i32 @putchar(i32 %42)
  %44 = getelementptr inbounds i8, i8* %40, i64 1
  %45 = icmp eq i8* %44, %25
  br i1 %45, label %46, label %39, !llvm.loop !10

46:                                               ; preds = %39, %22, %19
  %47 = phi i8* [ %20, %19 ], [ %23, %22 ], [ %23, %39 ]
  %48 = call i32 (i8*, ...) @printf(i8* nonnull dereferenceable(1) getelementptr inbounds ([3 x i8], [3 x i8]* @.str.2, i64 0, i64 0), i8* nonnull %4)
  %49 = getelementptr inbounds i8, i8* %47, i64 1
  %50 = load i8, i8* %49, align 1, !tbaa !5
  %51 = icmp eq i8 %50, 0
  br i1 %51, label %60, label %52

52:                                               ; preds = %46, %52
  %53 = phi i8 [ %58, %52 ], [ %50, %46 ]
  %54 = phi i8* [ %57, %52 ], [ %49, %46 ]
  %55 = sext i8 %53 to i32
  %56 = call i32 @putchar(i32 %55)
  %57 = getelementptr inbounds i8, i8* %54, i64 1
  %58 = load i8, i8* %57, align 1, !tbaa !5
  %59 = icmp eq i8 %58, 0
  br i1 %59, label %60, label %52, !llvm.loop !11

60:                                               ; preds = %52, %46
  %61 = call i32 @putchar(i32 10)
  %62 = call i32 (i8*, ...) @__isoc99_scanf(i8* getelementptr inbounds ([6 x i8], [6 x i8]* @.str, i64 0, i64 0), i8* nonnull %3, i8* nonnull %4)
  %63 = icmp eq i32 %62, -1
  br i1 %63, label %64, label %13, !llvm.loop !12

64:                                               ; preds = %60, %0
  call void @llvm.lifetime.end.p0i8(i64 3, i8* nonnull %4) #4
  call void @llvm.lifetime.end.p0i8(i64 11, i8* nonnull %3) #4
  ret void
}

; Function Attrs: argmemonly mustprogress nofree nosync nounwind willreturn
declare void @llvm.lifetime.start.p0i8(i64 immarg, i8* nocapture) #1

; Function Attrs: nofree nounwind
declare noundef i32 @__isoc99_scanf(i8* nocapture noundef readonly, ...) local_unnamed_addr #2

; Function Attrs: nofree nounwind
declare noundef i32 @printf(i8* nocapture noundef readonly, ...) local_unnamed_addr #2

; Function Attrs: argmemonly mustprogress nofree nosync nounwind willreturn
declare void @llvm.lifetime.end.p0i8(i64 immarg, i8* nocapture) #1

; Function Attrs: nofree nounwind
declare noundef i32 @putchar(i32 noundef) local_unnamed_addr #3


!llvm.module.flags = !{!0, !1, !2, !3}
!llvm.ident = !{!4}

!0 = !{i32 1, !"wchar_size", i32 4}
!1 = !{i32 7, !"PIC Level", i32 2}
!2 = !{i32 7, !"PIE Level", i32 2}
!3 = !{i32 7, !"uwtable", i32 1}
!4 = !{!"clang version 13.0.0"}
!5 = !{!6, !6, i64 0}
!6 = !{!"omnipotent char", !7, i64 0}
!7 = !{!"Simple C/C++ TBAA"}
!8 = distinct !{!8, !9}
!9 = !{!"llvm.loop.mustprogress"}
!10 = distinct !{!10, !9}
!11 = distinct !{!11, !9}
!12 = distinct !{!12, !9}
